; Function Attrs: mustprogress uwtable
define hidden void @_ZN11cmd_context18display_sat_resultE5lbool(ptr noundef nonnull align 8 dereferenceable(872) %this, i32 noundef %r) local_unnamed_addr #4 align 2 {
entry:
  %m_manager.i = getelementptr inbounds i8, ptr %this, i64 296
  %0 = load ptr, ptr %m_manager.i, align 8
  %cmp.i.not = icmp eq ptr %0, null
  br i1 %cmp.i.not, label %if.end, label %land.lhs.true

land.lhs.true:                                    ; preds = %entry
  tail call void @_ZN11cmd_context12init_managerEv(ptr noundef nonnull align 8 dereferenceable(872) %this)
  %1 = load ptr, ptr %m_manager.i, align 8
  %m_trace_stream.i = getelementptr inbounds i8, ptr %1, i64 912
  %2 = load ptr, ptr %m_trace_stream.i, align 8
  %cmp.i2.not = icmp eq ptr %2, null
  br i1 %cmp.i2.not, label %if.end, label %if.then

if.then:                                          ; preds = %land.lhs.true
  tail call void @_ZN11cmd_context12init_managerEv(ptr noundef nonnull align 8 dereferenceable(872) %this)
  %3 = load ptr, ptr %m_manager.i, align 8
  %m_trace_stream.i4 = getelementptr inbounds i8, ptr %3, i64 912
  %4 = load ptr, ptr %m_trace_stream.i4, align 8
  %add.ptr.i = getelementptr inbounds i8, ptr %4, i64 16
  %call6 = tail call noundef nonnull align 8 dereferenceable(8) ptr @_ZNSo5flushEv(ptr noundef nonnull align 8 dereferenceable(8) %add.ptr.i)
  br label %if.end

if.end:                                           ; preds = %if.then, %land.lhs.true, %entry
  %switch.tableidx = add i32 %r, 1
  %5 = icmp ult i32 %switch.tableidx, 3
  br i1 %5, label %switch.lookup, label %sw.epilog

switch.lookup:                                    ; preds = %if.end
  %6 = zext nneg i32 %switch.tableidx to i64
  %switch.gep = getelementptr inbounds [3 x ptr], ptr @switch.table._ZN11cmd_context18display_sat_resultE5lbool, i64 0, i64 %6
  %switch.load = load ptr, ptr %switch.gep, align 8
  %vtable17 = load ptr, ptr %this, align 8
  %vfn18 = getelementptr inbounds i8, ptr %vtable17, i64 40
  %7 = load ptr, ptr %vfn18, align 8
  %call19 = tail call noundef nonnull align 8 dereferenceable(8) ptr %7(ptr noundef nonnull align 8 dereferenceable(872) %this)
  %call20 = tail call noundef nonnull align 8 dereferenceable(8) ptr @_ZStlsISt11char_traitsIcEERSt13basic_ostreamIcT_ES5_PKc(ptr noundef nonnull align 8 dereferenceable(8) %call19, ptr noundef nonnull %switch.load)
  %call21 = tail call noundef nonnull align 8 dereferenceable(8) ptr @_ZNSolsEPFRSoS_E(ptr noundef nonnull align 8 dereferenceable(8) %call20, ptr noundef nonnull @_ZSt4endlIcSt11char_traitsIcEERSt13basic_ostreamIT_T0_ES6_)
  br label %sw.epilog

sw.epilog:                                        ; preds = %if.end, %switch.lookup
  ret void
}